; Function Attrs: mustprogress nofree norecurse nosync nounwind willreturn memory(read, inaccessiblemem: none) uwtable
define noundef zeroext i1 @_ZNK7openvdb5v11_02io4File6isOpenEv(ptr nocapture noundef nonnull readonly align 8 dereferenceable(80) %this) local_unnamed_addr #10 align 2 {
entry:
  %mImpl = getelementptr inbounds i8, ptr %this, i64 72
  %0 = load ptr, ptr %mImpl, align 8
  %mIsOpen = getelementptr inbounds i8, ptr %0, i64 72
  %1 = load i8, ptr %mIsOpen, align 8
  %2 = and i8 %1, 1
  %tobool = icmp ne i8 %2, 0
  ret i1 %tobool
}